target datalayout = "e-m:e-p270:32:32-p271:32:32-p272:64:64-i64:64-i128:128-f80:128-n8:16:32:64-S128"
target triple = "x86_64-unknown-linux-gnu"

%"class.hermes::hbc::RuntimeFunctionHeader" = type { ptr }
%"class.hermes::vm::CodeBlock" = type <{ ptr, %"class.hermes::hbc::RuntimeFunctionHeader", ptr, i32, i32, i32, [4 x i8] }>
%"class.hermes::vm::WeakRootBase" = type { %"class.hermes::vm::CompressedPointer" }
%"class.hermes::vm::CompressedPointer" = type { %"class.hermes::vm::BasedPointer" }
%"class.hermes::vm::BasedPointer" = type { i32 }
%"class.llvh::MutableArrayRef" = type { %"class.llvh::ArrayRef.45" }
%"class.llvh::ArrayRef.45" = type { ptr, i64 }
%"struct.hermes::vm::PropertyCacheEntry" = type { %"class.hermes::vm::WeakRoot.46", i32 }
%"class.hermes::vm::WeakRoot.46" = type { %"class.hermes::vm::WeakRootBase" }

; Function Attrs: mustprogress nounwind uwtable
define linkonce_odr hidden noundef i64 @_ZN4llvh15TrailingObjectsIN6hermes2vm9CodeBlockEJNS2_18PropertyCacheEntryEEE22callNumTrailingObjectsEPKS3_NS_25trailing_objects_internal19TrailingObjectsBase13OverloadTokenIS3_EE(ptr noundef %Obj) #0 comdat align 2 {
entry:
  %Obj.addr = alloca ptr, align 8
  store ptr %Obj, ptr %Obj.addr, align 8
  ret i64 1
}

; Function Attrs: mustprogress nounwind uwtable
define linkonce_odr hidden noundef ptr @_ZN4llvh15TrailingObjectsIN6hermes2vm9CodeBlockEJNS2_18PropertyCacheEntryEEE22getTrailingObjectsImplEPS3_NS_25trailing_objects_internal19TrailingObjectsBase13OverloadTokenIS3_EE(ptr noundef %Obj) #0 comdat align 2 {
entry:
  %Obj.addr = alloca ptr, align 8
  store ptr %Obj, ptr %Obj.addr, align 8
  %0 = load ptr, ptr %Obj.addr, align 8
  ret ptr %0
}

; Function Attrs: mustprogress nounwind uwtable
define linkonce_odr hidden noundef ptr @_ZNK4llvh8ArrayRefIN6hermes2vm18PropertyCacheEntryEE4dataEv(ptr noundef nonnull align 8 dereferenceable(16) %this) #0 comdat align 2 {
entry:
  %this.addr = alloca ptr, align 8
  store ptr %this, ptr %this.addr, align 8
  %this1 = load ptr, ptr %this.addr, align 8
  %Data = getelementptr inbounds %"class.llvh::ArrayRef.45", ptr %this1, i32 0, i32 0
  %0 = load ptr, ptr %Data, align 8
  ret ptr %0
}

; Function Attrs: mustprogress nounwind uwtable
define linkonce_odr hidden void @_ZN4llvh8ArrayRefIN6hermes2vm18PropertyCacheEntryEEC2EPKS3_m(ptr noundef nonnull align 8 dereferenceable(16) %this, ptr noundef %data, i64 noundef %length) unnamed_addr #0 comdat align 2 {
entry:
  %this.addr = alloca ptr, align 8
  %data.addr = alloca ptr, align 8
  %length.addr = alloca i64, align 8
  store ptr %this, ptr %this.addr, align 8
  store ptr %data, ptr %data.addr, align 8
  store i64 %length, ptr %length.addr, align 8
  %this1 = load ptr, ptr %this.addr, align 8
  %Data = getelementptr inbounds %"class.llvh::ArrayRef.45", ptr %this1, i32 0, i32 0
  %0 = load ptr, ptr %data.addr, align 8
  store ptr %0, ptr %Data, align 8
  %Length = getelementptr inbounds %"class.llvh::ArrayRef.45", ptr %this1, i32 0, i32 1
  %1 = load i64, ptr %length.addr, align 8
  store i64 %1, ptr %Length, align 8
  ret void
}

; Function Attrs: mustprogress nounwind uwtable
define linkonce_odr hidden noundef ptr @_ZN4llvh25trailing_objects_internal19TrailingObjectsImplILi4EN6hermes2vm9CodeBlockENS_15TrailingObjectsIS4_JNS3_18PropertyCacheEntryEEEES4_JS6_EE22getTrailingObjectsImplEPS4_NS0_19TrailingObjectsBase13OverloadTokenIS6_EE(ptr noundef %Obj) #0 comdat align 2 {
entry:
  %Obj.addr = alloca ptr, align 8
  %Ptr = alloca ptr, align 8
  store ptr %Obj, ptr %Obj.addr, align 8
  %0 = load ptr, ptr %Obj.addr, align 8
  %call = call noundef ptr @_ZN4llvh15TrailingObjectsIN6hermes2vm9CodeBlockEJNS2_18PropertyCacheEntryEEE22getTrailingObjectsImplEPS3_NS_25trailing_objects_internal19TrailingObjectsBase13OverloadTokenIS3_EE(ptr noundef %0)
  %1 = load ptr, ptr %Obj.addr, align 8
  %call2 = call noundef i64 @_ZN4llvh15TrailingObjectsIN6hermes2vm9CodeBlockEJNS2_18PropertyCacheEntryEEE22callNumTrailingObjectsEPKS3_NS_25trailing_objects_internal19TrailingObjectsBase13OverloadTokenIS3_EE(ptr noundef %1)
  %add.ptr = getelementptr inbounds %"class.hermes::vm::CodeBlock", ptr %call, i64 %call2
  store ptr %add.ptr, ptr %Ptr, align 8
  %2 = load ptr, ptr %Ptr, align 8
  ret ptr %2
}

; Function Attrs: mustprogress nounwind uwtable
define linkonce_odr hidden void @_ZN4llvh15TrailingObjectsIN6hermes2vm9CodeBlockEJNS2_18PropertyCacheEntryEEE31verifyTrailingObjectsAssertionsEv() #0 comdat align 2 {
entry:
  ret void
}

; Function Attrs: mustprogress nounwind uwtable
define linkonce_odr hidden noundef zeroext i1 @_ZNK6hermes2vm12BasedPointercvbEv(ptr noundef nonnull align 4 dereferenceable(4) %this) #0 comdat align 2 {
entry:
  %this.addr = alloca ptr, align 8
  store ptr %this, ptr %this.addr, align 8
  %this1 = load ptr, ptr %this.addr, align 8
  %raw_ = getelementptr inbounds %"class.hermes::vm::BasedPointer", ptr %this1, i32 0, i32 0
  %0 = load i32, ptr %raw_, align 4
  %cmp = icmp ne i32 %0, 0
  ret i1 %cmp
}

; Function Attrs: mustprogress nounwind uwtable
define linkonce_odr hidden noundef i64 @_ZNK4llvh8ArrayRefIN6hermes2vm18PropertyCacheEntryEE4sizeEv(ptr noundef nonnull align 8 dereferenceable(16) %this) #0 comdat align 2 {
entry:
  %this.addr = alloca ptr, align 8
  store ptr %this, ptr %this.addr, align 8
  %this1 = load ptr, ptr %this.addr, align 8
  %Length = getelementptr inbounds %"class.llvh::ArrayRef.45", ptr %this1, i32 0, i32 1
  %0 = load i64, ptr %Length, align 8
  ret i64 %0
}

; Function Attrs: mustprogress nounwind uwtable
define linkonce_odr hidden noundef ptr @_ZNK4llvh15MutableArrayRefIN6hermes2vm18PropertyCacheEntryEE4dataEv(ptr noundef nonnull align 8 dereferenceable(16) %this) #0 comdat align 2 {
entry:
  %this.addr = alloca ptr, align 8
  store ptr %this, ptr %this.addr, align 8
  %this1 = load ptr, ptr %this.addr, align 8
  %call = call noundef ptr @_ZNK4llvh8ArrayRefIN6hermes2vm18PropertyCacheEntryEE4dataEv(ptr noundef nonnull align 8 dereferenceable(16) %this1)
  ret ptr %call
}

; Function Attrs: mustprogress nounwind uwtable
define linkonce_odr hidden void @_ZN4llvh15MutableArrayRefIN6hermes2vm18PropertyCacheEntryEEC2EPS3_m(ptr noundef nonnull align 8 dereferenceable(16) %this, ptr noundef %data, i64 noundef %length) unnamed_addr #0 comdat align 2 {
entry:
  %this.addr = alloca ptr, align 8
  %data.addr = alloca ptr, align 8
  %length.addr = alloca i64, align 8
  store ptr %this, ptr %this.addr, align 8
  store ptr %data, ptr %data.addr, align 8
  store i64 %length, ptr %length.addr, align 8
  %this1 = load ptr, ptr %this.addr, align 8
  %0 = load ptr, ptr %data.addr, align 8
  %1 = load i64, ptr %length.addr, align 8
  call void @_ZN4llvh8ArrayRefIN6hermes2vm18PropertyCacheEntryEEC2EPKS3_m(ptr noundef nonnull align 8 dereferenceable(16) %this1, ptr noundef %0, i64 noundef %1)
  ret void
}

; Function Attrs: mustprogress nounwind uwtable
define linkonce_odr hidden noundef ptr @_ZN4llvh15TrailingObjectsIN6hermes2vm9CodeBlockEJNS2_18PropertyCacheEntryEEE18getTrailingObjectsIS4_EEPT_v(ptr noundef nonnull align 4 dereferenceable(4) %this) #0 comdat align 2 {
entry:
  %this.addr = alloca ptr, align 8
  store ptr %this, ptr %this.addr, align 8
  %this1 = load ptr, ptr %this.addr, align 8
  call void @_ZN4llvh15TrailingObjectsIN6hermes2vm9CodeBlockEJNS2_18PropertyCacheEntryEEE31verifyTrailingObjectsAssertionsEv()
  %call = call noundef ptr @_ZN4llvh25trailing_objects_internal19TrailingObjectsImplILi4EN6hermes2vm9CodeBlockENS_15TrailingObjectsIS4_JNS3_18PropertyCacheEntryEEEES4_JS6_EE22getTrailingObjectsImplEPS4_NS0_19TrailingObjectsBase13OverloadTokenIS6_EE(ptr noundef %this1)
  ret ptr %call
}

; Function Attrs: mustprogress nounwind uwtable
define linkonce_odr hidden noundef zeroext i1 @_ZNK6hermes2vm17CompressedPointercvbEv(ptr noundef nonnull align 4 dereferenceable(4) %this) #0 comdat align 2 {
entry:
  %this.addr = alloca ptr, align 8
  store ptr %this, ptr %this.addr, align 8
  %this1 = load ptr, ptr %this.addr, align 8
  %ptr_ = getelementptr inbounds %"class.hermes::vm::CompressedPointer", ptr %this1, i32 0, i32 0
  %call = call noundef zeroext i1 @_ZNK6hermes2vm12BasedPointercvbEv(ptr noundef nonnull align 4 dereferenceable(4) %ptr_)
  ret i1 %call
}

; Function Attrs: mustprogress nounwind uwtable
define linkonce_odr hidden noundef ptr @_ZNK4llvh15MutableArrayRefIN6hermes2vm18PropertyCacheEntryEE3endEv(ptr noundef nonnull align 8 dereferenceable(16) %this) #0 comdat align 2 {
entry:
  %this.addr = alloca ptr, align 8
  store ptr %this, ptr %this.addr, align 8
  %this1 = load ptr, ptr %this.addr, align 8
  %call = call noundef ptr @_ZNK4llvh15MutableArrayRefIN6hermes2vm18PropertyCacheEntryEE4dataEv(ptr noundef nonnull align 8 dereferenceable(16) %this1)
  %call2 = call noundef i64 @_ZNK4llvh8ArrayRefIN6hermes2vm18PropertyCacheEntryEE4sizeEv(ptr noundef nonnull align 8 dereferenceable(16) %this1)
  %add.ptr = getelementptr inbounds %"struct.hermes::vm::PropertyCacheEntry", ptr %call, i64 %call2
  ret ptr %add.ptr
}

; Function Attrs: mustprogress nounwind uwtable
define linkonce_odr hidden noundef ptr @_ZNK4llvh15MutableArrayRefIN6hermes2vm18PropertyCacheEntryEE5beginEv(ptr noundef nonnull align 8 dereferenceable(16) %this) #0 comdat align 2 {
entry:
  %this.addr = alloca ptr, align 8
  store ptr %this, ptr %this.addr, align 8
  %this1 = load ptr, ptr %this.addr, align 8
  %call = call noundef ptr @_ZNK4llvh15MutableArrayRefIN6hermes2vm18PropertyCacheEntryEE4dataEv(ptr noundef nonnull align 8 dereferenceable(16) %this1)
  ret ptr %call
}

; Function Attrs: mustprogress nounwind uwtable
define linkonce_odr hidden { ptr, i64 } @_ZN4llvh19makeMutableArrayRefIN6hermes2vm18PropertyCacheEntryEEENS_15MutableArrayRefIT_EEPS5_m(ptr noundef %data, i64 noundef %length) #0 comdat {
entry:
  %retval = alloca %"class.llvh::MutableArrayRef", align 8
  %data.addr = alloca ptr, align 8
  %length.addr = alloca i64, align 8
  store ptr %data, ptr %data.addr, align 8
  store i64 %length, ptr %length.addr, align 8
  %0 = load ptr, ptr %data.addr, align 8
  %1 = load i64, ptr %length.addr, align 8
  call void @_ZN4llvh15MutableArrayRefIN6hermes2vm18PropertyCacheEntryEEC2EPS3_m(ptr noundef nonnull align 8 dereferenceable(16) %retval, ptr noundef %0, i64 noundef %1)
  %coerce.dive = getelementptr inbounds %"class.llvh::MutableArrayRef", ptr %retval, i32 0, i32 0
  %2 = load { ptr, i64 }, ptr %coerce.dive, align 8
  ret { ptr, i64 } %2
}

; Function Attrs: mustprogress nounwind uwtable
define linkonce_odr hidden noundef ptr @_ZN6hermes2vm9CodeBlock13propertyCacheEv(ptr noundef nonnull align 8 dereferenceable(40) %this) #0 comdat align 2 {
entry:
  %this.addr = alloca ptr, align 8
  store ptr %this, ptr %this.addr, align 8
  %this1 = load ptr, ptr %this.addr, align 8
  %call = call noundef ptr @_ZN4llvh15TrailingObjectsIN6hermes2vm9CodeBlockEJNS2_18PropertyCacheEntryEEE18getTrailingObjectsIS4_EEPT_v(ptr noundef nonnull align 4 dereferenceable(4) %this1)
  ret ptr %call
}

; Function Attrs: mustprogress nounwind uwtable
define hidden void @_ZN6hermes2vm9CodeBlock23markCachedHiddenClassesERNS0_7RuntimeERNS0_16WeakRootAcceptorE(ptr noundef nonnull align 8 dereferenceable(40) %this, ptr noundef nonnull align 8 dereferenceable(9832) %runtime, ptr noundef nonnull align 8 dereferenceable(8) %acceptor) #0 align 2 {
entry:
  %this.addr = alloca ptr, align 8
  %runtime.addr = alloca ptr, align 8
  %acceptor.addr = alloca ptr, align 8
  %__range2 = alloca ptr, align 8
  %ref.tmp = alloca %"class.llvh::MutableArrayRef", align 8
  %__begin2 = alloca ptr, align 8
  %__end2 = alloca ptr, align 8
  %prop = alloca ptr, align 8
  store ptr %this, ptr %this.addr, align 8
  store ptr %runtime, ptr %runtime.addr, align 8
  store ptr %acceptor, ptr %acceptor.addr, align 8
  %this1 = load ptr, ptr %this.addr, align 8
  %call = call noundef ptr @_ZN6hermes2vm9CodeBlock13propertyCacheEv(ptr noundef nonnull align 8 dereferenceable(40) %this1)
  %propertyCacheSize_ = getelementptr inbounds %"class.hermes::vm::CodeBlock", ptr %this1, i32 0, i32 4
  %0 = load i32, ptr %propertyCacheSize_, align 4
  %conv = zext i32 %0 to i64
  %call2 = call { ptr, i64 } @_ZN4llvh19makeMutableArrayRefIN6hermes2vm18PropertyCacheEntryEEENS_15MutableArrayRefIT_EEPS5_m(ptr noundef %call, i64 noundef %conv)
  %coerce.dive = getelementptr inbounds %"class.llvh::MutableArrayRef", ptr %ref.tmp, i32 0, i32 0
  %1 = getelementptr inbounds { ptr, i64 }, ptr %coerce.dive, i32 0, i32 0
  %2 = extractvalue { ptr, i64 } %call2, 0
  store ptr %2, ptr %1, align 8
  %3 = getelementptr inbounds { ptr, i64 }, ptr %coerce.dive, i32 0, i32 1
  %4 = extractvalue { ptr, i64 } %call2, 1
  store i64 %4, ptr %3, align 8
  store ptr %ref.tmp, ptr %__range2, align 8
  %5 = load ptr, ptr %__range2, align 8
  %call3 = call noundef ptr @_ZNK4llvh15MutableArrayRefIN6hermes2vm18PropertyCacheEntryEE5beginEv(ptr noundef nonnull align 8 dereferenceable(16) %5)
  store ptr %call3, ptr %__begin2, align 8
  %6 = load ptr, ptr %__range2, align 8
  %call4 = call noundef ptr @_ZNK4llvh15MutableArrayRefIN6hermes2vm18PropertyCacheEntryEE3endEv(ptr noundef nonnull align 8 dereferenceable(16) %6)
  store ptr %call4, ptr %__end2, align 8
  br label %for.cond

for.cond:                                         ; preds = %for.inc, %entry
  %7 = load ptr, ptr %__begin2, align 8
  %8 = load ptr, ptr %__end2, align 8
  %cmp = icmp ne ptr %7, %8
  br i1 %cmp, label %for.body, label %for.end

for.body:                                         ; preds = %for.cond
  %9 = load ptr, ptr %__begin2, align 8
  store ptr %9, ptr %prop, align 8
  %10 = load ptr, ptr %prop, align 8
  %clazz = getelementptr inbounds %"struct.hermes::vm::PropertyCacheEntry", ptr %10, i32 0, i32 0
  %call5 = call noundef zeroext i1 @_ZNK6hermes2vm17CompressedPointercvbEv(ptr noundef nonnull align 4 dereferenceable(4) %clazz)
  br i1 %call5, label %if.then, label %if.end

if.then:                                          ; preds = %for.body
  %11 = load ptr, ptr %acceptor.addr, align 8
  %12 = load ptr, ptr %prop, align 8
  %clazz6 = getelementptr inbounds %"struct.hermes::vm::PropertyCacheEntry", ptr %12, i32 0, i32 0
  %vtable = load ptr, ptr %11, align 8
  %vfn = getelementptr inbounds ptr, ptr %vtable, i64 4
  %13 = load ptr, ptr %vfn, align 8
  call void %13(ptr noundef nonnull align 8 dereferenceable(8) %11, ptr noundef nonnull align 4 dereferenceable(4) %clazz6)
  br label %if.end

if.end:                                           ; preds = %if.then, %for.body
  br label %for.inc

for.inc:                                          ; preds = %if.end
  %14 = load ptr, ptr %__begin2, align 8
  %incdec.ptr = getelementptr inbounds %"struct.hermes::vm::PropertyCacheEntry", ptr %14, i32 1
  store ptr %incdec.ptr, ptr %__begin2, align 8
  br label %for.cond

for.end:                                          ; preds = %for.cond
  ret void
}